(dp1
VNR3B1
p2
(dp3
g2
F100
sVNR3B2
p4
F3.23
sVNR3B3
p5
F75
sVNR2B1
p6
F50.399999999999999
sVNR1F3
p7
F23.789999999999999
sVNR2B3
p8
F47.979999999999997
sVNR2B2
p9
F47.579999999999998
sVNR1D1
p10
F4.0300000000000002
sVNR1D2
p11
F35.890000000000001
sVNR1B1
p12
F2.4199999999999999
sVNR0B2
p13
F2.02
sVNR2F1
p14
F3.6299999999999999
sVNR2F2
p15
F3.6299999999999999
sVNR5A2
p16
F52.420000000000002
sVNR5A1
p17
F49.600000000000001
sVNR1H4
p18
F29.440000000000001
sVNR1H2
p19
F40.32
sVNR1H3
p20
F40.32
sVNR3C4
p21
F33.869999999999997
sVNR4A2
p22
F46.369999999999997
sVNR4A1
p23
F41.530000000000001
sVNR2C2
p24
F43.950000000000003
sVNR2A1
p25
F2.02
sVNR1A1
p26
F39.109999999999999
sVNR1C1
p27
F34.68
sVNR1C3
p28
F35.890000000000001
sVNR1C2
p29
F40.729999999999997
sVNR1I2
p30
F33.469999999999999
sVNR1I1
p31
F8.8699999999999992
sVNR1F1
p32
F38.710000000000001
ssg4
(dp33
g2
F8.1600000000000001
sg4
F100
sg5
F10.199999999999999
sg6
F7.1399999999999997
sg7
F19.390000000000001
sg8
F10.199999999999999
sg9
F7.1399999999999997
sg10
F59.18
sg11
F21.43
sg12
F50
sg13
F2.04
sg14
F50
sg15
F50
sg16
F12.24
sg17
F4.0800000000000001
sg18
F10.199999999999999
sg19
F7.1399999999999997
sg20
F9.1799999999999997
sg21
F15.31
sg22
F11.220000000000001
sg23
F17.350000000000001
sg24
F11.220000000000001
sg25
F51.020000000000003
sg26
F10.199999999999999
sg27
F5.0999999999999996
sg28
F8.1600000000000001
sg29
F18.370000000000001
sg30
F11.220000000000001
sg31
F63.270000000000003
sg32
F13.27
ssg5
(dp34
g2
F76.230000000000004
sg4
F4.0999999999999996
sg5
F100
sg6
F52.460000000000001
sg7
F34.43
sg8
F50.82
sg9
F48.359999999999999
sg10
F2.0499999999999998
sg11
F33.200000000000003
sg12
F2.0499999999999998
sg13
F2.0499999999999998
sg14
F2.0499999999999998
sg15
F2.0499999999999998
sg16
F53.689999999999998
sg17
F51.640000000000001
sg18
F40.979999999999997
sg19
F43.030000000000001
sg20
F49.18
sg21
F31.559999999999999
sg22
F51.640000000000001
sg23
F42.210000000000001
sg24
F40.979999999999997
sg25
F2.46
sg26
F40.57
sg27
F34.020000000000003
sg28
F35.659999999999997
sg29
F34.020000000000003
sg30
F38.520000000000003
sg31
F4.9199999999999999
sg32
F28.280000000000001
ssg6
(dp35
g2
F52.079999999999998
sg4
F2.9199999999999999
sg5
F53.329999999999998
sg6
F100
sg7
F33.329999999999998
sg8
F94.170000000000002
sg9
F87.079999999999998
sg10
F2.0800000000000001
sg11
F35.420000000000002
sg12
F1.6699999999999999
sg13
F2.0800000000000001
sg14
F3.3300000000000001
sg15
F55.829999999999998
sg16
F56.670000000000002
sg17
F54.579999999999998
sg18
F37.079999999999998
sg19
F50.420000000000002
sg20
F36.670000000000002
sg21
F42.079999999999998
sg22
F38.329999999999998
sg23
F38.329999999999998
sg24
F49.170000000000002
sg25
F3.3300000000000001
sg26
F38.329999999999998
sg27
F40.829999999999998
sg28
F37.920000000000002
sg29
F40
sg30
F36.25
sg31
F7.5
sg32
F32.920000000000002
ssg7
(dp36
g2
F23.789999999999999
sg4
F7.6600000000000001
sg5
F33.869999999999997
sg6
F32.259999999999998
sg7
F100
sg8
F30.649999999999999
sg9
F29.440000000000001
sg10
F4.8399999999999999
sg11
F46.369999999999997
sg12
F2.02
sg13
F2.02
sg14
F6.0499999999999998
sg15
F26.609999999999999
sg16
F43.950000000000003
sg17
F28.23
sg18
F38.310000000000002
sg19
F43.549999999999997
sg20
F53.630000000000003
sg21
F39.920000000000002
sg22
F50.399999999999999
sg23
F53.229999999999997
sg24
F33.469999999999999
sg25
F3.6299999999999999
sg26
F49.600000000000001
sg27
F40.32
sg28
F45.969999999999999
sg29
F43.950000000000003
sg30
F43.950000000000003
sg31
F7.6600000000000001
sg32
F72.180000000000007
ssg8
(dp37
g2
F49.380000000000003
sg4
F4.1500000000000004
sg5
F51.450000000000003
sg6
F93.780000000000001
sg7
F31.539999999999999
sg8
F100
sg9
F84.230000000000004
sg10
F2.0699999999999998
sg11
F35.270000000000003
sg12
F2.4900000000000002
sg13
F2.0699999999999998
sg14
F2.8999999999999999
sg15
F59.75
sg16
F53.939999999999998
sg17
F45.640000000000001
sg18
F43.149999999999999
sg19
F44.399999999999999
sg20
F33.200000000000003
sg21
F42.32
sg22
F37.759999999999998
sg23
F38.590000000000003
sg24
F43.57
sg25
F3.73
sg26
F47.299999999999997
sg27
F45.229999999999997
sg28
F37.340000000000003
sg29
F36.93
sg30
F39
sg31
F7.4699999999999998
sg32
F35.68
ssg9
(dp38
g2
F52.68
sg4
F3.1299999999999999
sg5
F52.68
sg6
F93.299999999999997
sg7
F32.590000000000003
sg8
F90.629999999999995
sg9
F100
sg10
F2.6800000000000002
sg11
F38.840000000000003
sg12
F1.79
sg13
F2.23
sg14
F4.9100000000000001
sg15
F56.25
sg16
F52.229999999999997
sg17
F47.770000000000003
sg18
F39.729999999999997
sg19
F46.43
sg20
F35.270000000000003
sg21
F43.75
sg22
F37.049999999999997
sg23
F37.049999999999997
sg24
F45.539999999999999
sg25
F4.0199999999999996
sg26
F38.840000000000003
sg27
F40.630000000000003
sg28
F39.289999999999999
sg29
F41.520000000000003
sg30
F35.270000000000003
sg31
F8.0399999999999991
sg32
F35.270000000000003
ssg10
(dp39
g2
F10.640000000000001
sg4
F61.700000000000003
sg5
F5.3200000000000003
sg6
F5.3200000000000003
sg7
F12.77
sg8
F5.3200000000000003
sg9
F6.3799999999999999
sg10
F100
sg11
F7.4500000000000002
sg12
F65.959999999999994
sg13
F6.3799999999999999
sg14
F58.509999999999998
sg15
F35.109999999999999
sg16
F23.399999999999999
sg17
F8.5099999999999998
sg18
F4.2599999999999998
sg19
F10.640000000000001
sg20
F8.5099999999999998
sg21
F11.699999999999999
sg22
F7.4500000000000002
sg23
F8.5099999999999998
sg24
F26.600000000000001
sg25
F55.32
sg26
F11.699999999999999
sg27
F15.960000000000001
sg28
F13.83
sg29
F12.77
sg30
F26.600000000000001
sg31
F57.450000000000003
sg32
F14.890000000000001
ssg11
(dp40
g2
F44.719999999999999
sg4
F10.550000000000001
sg5
F40.700000000000003
sg6
F42.710000000000001
sg7
F57.789999999999999
sg8
F42.710000000000001
sg9
F43.719999999999999
sg10
F3.52
sg11
F100
sg12
F8.5399999999999991
sg13
F1.51
sg14
F3.52
sg15
F41.210000000000001
sg16
F50.25
sg17
F44.219999999999999
sg18
F56.780000000000001
sg19
F51.759999999999998
sg20
F61.310000000000002
sg21
F39.200000000000003
sg22
F44.219999999999999
sg23
F43.219999999999999
sg24
F37.689999999999998
sg25
F9.5500000000000007
sg26
F54.770000000000003
sg27
F50.25
sg28
F52.259999999999998
sg29
F53.770000000000003
sg30
F53.270000000000003
sg31
F5.5300000000000002
sg32
F62.310000000000002
ssg12
(dp41
g2
F6.9800000000000004
sg4
F56.979999999999997
sg5
F5.8099999999999996
sg6
F8.1400000000000006
sg7
F5.8099999999999996
sg8
F8.1400000000000006
sg9
F8.1400000000000006
sg10
F72.090000000000003
sg11
F19.77
sg12
F100
sg13
F2.3300000000000001
sg14
F66.280000000000001
sg15
F10.470000000000001
sg16
F4.6500000000000004
sg17
F11.630000000000001
sg18
F12.789999999999999
sg19
F13.949999999999999
sg20
F11.630000000000001
sg21
F4.6500000000000004
sg22
F10.470000000000001
sg23
F3.4900000000000002
sg24
F6.9800000000000004
sg25
F72.090000000000003
sg26
F9.3000000000000007
sg27
F15.119999999999999
sg28
F12.789999999999999
sg29
F15.119999999999999
sg30
F12.789999999999999
sg31
F66.280000000000001
sg32
F26.739999999999998
ssg13
(dp42
g2
F50
sg4
F20
sg5
F50
sg6
F50
sg7
F50
sg8
F50
sg9
F30
sg10
F40
sg11
F30
sg12
F20
sg13
F100
sg14
F20
sg15
F30
sg16
F60
sg17
F50
sg18
F60
sg19
F40
sg20
F60
sg21
F60
sg22
F40
sg23
F40
sg24
F70
sg25
F30
sg26
F60
sg27
F70
sg28
F70
sg29
F70
sg30
F50
sg31
F20
sg32
F40
ssg14
(dp43
g2
F10.109999999999999
sg4
F55.060000000000002
sg5
F5.6200000000000001
sg6
F8.9900000000000002
sg7
F16.850000000000001
sg8
F7.8700000000000001
sg9
F12.359999999999999
sg10
F61.799999999999997
sg11
F7.8700000000000001
sg12
F64.040000000000006
sg13
F2.25
sg14
F100
sg15
F13.48
sg16
F5.6200000000000001
sg17
F28.09
sg18
F7.8700000000000001
sg19
F6.7400000000000002
sg20
F8.9900000000000002
sg21
F3.3700000000000001
sg22
F4.4900000000000002
sg23
F4.4900000000000002
sg24
F17.98
sg25
F66.290000000000006
sg26
F13.48
sg27
F22.469999999999999
sg28
F6.7400000000000002
sg29
F6.7400000000000002
sg30
F10.109999999999999
sg31
F57.299999999999997
sg32
F7.8700000000000001
ssg15
(dp44
g2
F10.109999999999999
sg4
F55.060000000000002
sg5
F5.6200000000000001
sg6
F54.920000000000002
sg7
F27.050000000000001
sg8
F59.020000000000003
sg9
F51.640000000000001
sg10
F13.52
sg11
F33.609999999999999
sg12
F3.6899999999999999
sg13
F1.23
sg14
F4.9199999999999999
sg15
F100
sg16
F5.6200000000000001
sg17
F28.09
sg18
F35.659999999999997
sg19
F40.979999999999997
sg20
F45.490000000000002
sg21
F3.3700000000000001
sg22
F4.4900000000000002
sg23
F4.4900000000000002
sg24
F51.229999999999997
sg25
F5.7400000000000002
sg26
F33.609999999999999
sg27
F40.57
sg28
F36.07
sg29
F37.700000000000003
sg30
F44.259999999999998
sg31
F7.79
sg32
F29.100000000000001
ssg16
(dp45
g2
F50.579999999999998
sg4
F4.6699999999999999
sg5
F50.969999999999999
sg6
F52.920000000000002
sg7
F42.409999999999997
sg8
F50.579999999999998
sg9
F45.530000000000001
sg10
F8.9499999999999993
sg11
F38.909999999999997
sg12
F1.5600000000000001
sg13
F2.3300000000000001
sg14
F1.95
sg15
F1.95
sg16
F100
sg17
F76.260000000000005
sg18
F39.689999999999998
sg19
F42.409999999999997
sg20
F47.079999999999998
sg21
F31.52
sg22
F29.18
sg23
F39.299999999999997
sg24
F37.350000000000001
sg25
F3.5
sg26
F34.630000000000003
sg27
F40.079999999999998
sg28
F40.859999999999999
sg29
F32.299999999999997
sg30
F48.25
sg31
F5.8399999999999999
sg32
F42.799999999999997
ssg17
(dp46
g2
F51.039999999999999
sg4
F1.6599999999999999
sg5
F52.280000000000001
sg6
F54.359999999999999
sg7
F29.050000000000001
sg8
F45.640000000000001
sg9
F44.399999999999999
sg10
F3.3199999999999998
sg11
F36.509999999999998
sg12
F4.1500000000000004
sg13
F2.0699999999999998
sg14
F10.369999999999999
sg15
F10.369999999999999
sg16
F81.329999999999998
sg17
F100
sg18
F39.829999999999998
sg19
F41.079999999999998
sg20
F36.93
sg21
F26.969999999999999
sg22
F29.879999999999999
sg23
F32.780000000000001
sg24
F32.780000000000001
sg25
F5.8099999999999996
sg26
F41.079999999999998
sg27
F29.460000000000001
sg28
F43.149999999999999
sg29
F26.969999999999999
sg30
F36.93
sg31
F5.3899999999999997
sg32
F36.93
ssg18
(dp47
g2
F31.469999999999999
sg4
F4.3099999999999996
sg5
F43.100000000000001
sg6
F38.359999999999999
sg7
F40.950000000000003
sg8
F44.399999999999999
sg9
F38.359999999999999
sg10
F1.72
sg11
F48.710000000000001
sg12
F4.7400000000000002
sg13
F2.5899999999999999
sg14
F3.02
sg15
F37.5
sg16
F44.829999999999998
sg17
F40.520000000000003
sg18
F100
sg19
F48.710000000000001
sg20
F49.140000000000001
sg21
F43.100000000000001
sg22
F35.340000000000003
sg23
F40.090000000000003
sg24
F34.049999999999997
sg25
F2.5899999999999999
sg26
F50.859999999999999
sg27
F38.359999999999999
sg28
F40.950000000000003
sg29
F38.789999999999999
sg30
F47.840000000000003
sg31
F6.9000000000000004
sg32
F51.719999999999999
ssg19
(dp48
g2
F38.909999999999997
sg4
F2.7200000000000002
sg5
F40.859999999999999
sg6
F46.689999999999998
sg7
F42.020000000000003
sg8
F41.630000000000003
sg9
F40.469999999999999
sg10
F3.8900000000000001
sg11
F40.079999999999998
sg12
F4.6699999999999999
sg13
F1.5600000000000001
sg14
F2.3300000000000001
sg15
F38.520000000000003
sg16
F42.799999999999997
sg17
F38.520000000000003
sg18
F43.969999999999999
sg19
F100
sg20
F83.659999999999997
sg21
F36.960000000000001
sg22
F43.579999999999998
sg23
F45.140000000000001
sg24
F31.52
sg25
F6.2300000000000004
sg26
F46.689999999999998
sg27
F39.689999999999998
sg28
F41.630000000000003
sg29
F36.189999999999998
sg30
F56.030000000000001
sg31
F2.7200000000000002
sg32
F50.969999999999999
ssg20
(dp49
g2
F35.340000000000003
sg4
F3.1800000000000002
sg5
F41.340000000000003
sg6
F31.100000000000001
sg7
F47
sg8
F28.27
sg9
F27.920000000000002
sg10
F2.8300000000000001
sg11
F43.109999999999999
sg12
F3.5299999999999998
sg13
F2.1200000000000001
sg14
F2.8300000000000001
sg15
F39.219999999999999
sg16
F41.700000000000003
sg17
F35.340000000000003
sg18
F40.640000000000001
sg19
F75.969999999999999
sg20
F100
sg21
F32.509999999999998
sg22
F44.520000000000003
sg23
F44.880000000000003
sg24
F28.620000000000001
sg25
F2.8300000000000001
sg26
F49.469999999999999
sg27
F43.82
sg28
F40.640000000000001
sg29
F38.159999999999997
sg30
F54.770000000000003
sg31
F5.2999999999999998
sg32
F51.240000000000002
ssg21
(dp50
g2
F33.869999999999997
sg4
F6.0499999999999998
sg5
F31.050000000000001
sg6
F40.729999999999997
sg7
F39.920000000000002
sg8
F41.130000000000003
sg9
F39.109999999999999
sg10
F4.4400000000000004
sg11
F31.449999999999999
sg12
F1.6100000000000001
sg13
F2.4199999999999999
sg14
F1.21
sg15
F1.21
sg16
F32.659999999999997
sg17
F26.210000000000001
sg18
F39.920000000000002
sg19
F38.710000000000001
sg20
F37.5
sg21
F100
sg22
F35.479999999999997
sg23
F33.060000000000002
sg24
F37.100000000000001
sg25
F3.6299999999999999
sg26
F34.270000000000003
sg27
F14.52
sg28
F35.890000000000001
sg29
F36.689999999999998
sg30
F38.310000000000002
sg31
F4.8399999999999999
sg32
F33.869999999999997
ssg22
(dp51
g2
F42.439999999999998
sg4
F4.0599999999999996
sg5
F46.490000000000002
sg6
F33.950000000000003
sg7
F46.130000000000003
sg8
F33.579999999999998
sg9
F30.629999999999999
sg10
F2.5800000000000001
sg11
F32.469999999999999
sg12
F3.3199999999999998
sg13
F1.48
sg14
F1.48
sg15
F1.48
sg16
F27.68
sg17
F26.57
sg18
F30.260000000000002
sg19
F41.329999999999998
sg20
F46.490000000000002
sg21
F32.469999999999999
sg22
F100
sg23
F75.650000000000006
sg24
F30.629999999999999
sg25
F3.6899999999999999
sg26
F44.280000000000001
sg27
F29.890000000000001
sg28
F38.009999999999998
sg29
F38.75
sg30
F43.909999999999997
sg31
F4.7999999999999998
sg32
F39.850000000000001
ssg23
(dp52
g2
F40.079999999999998
sg4
F6.6100000000000003
sg5
F40.079999999999998
sg6
F35.799999999999997
sg7
F51.359999999999999
sg8
F36.189999999999998
sg9
F32.299999999999997
sg10
F3.1099999999999999
sg11
F33.460000000000001
sg12
F1.1699999999999999
sg13
F1.5600000000000001
sg14
F1.5600000000000001
sg15
F1.5600000000000001
sg16
F39.299999999999997
sg17
F30.739999999999998
sg18
F36.189999999999998
sg19
F45.140000000000001
sg20
F49.030000000000001
sg21
F31.91
sg22
F79.769999999999996
sg23
F100
sg24
F31.91
sg25
F2.3300000000000001
sg26
F38.520000000000003
sg27
F37.740000000000002
sg28
F43.189999999999998
sg29
F42.020000000000003
sg30
F39.299999999999997
sg31
F5.0599999999999996
sg32
F50.189999999999998
ssg24
(dp53
g2
F43.780000000000001
sg4
F4.4199999999999999
sg5
F40.159999999999997
sg6
F47.390000000000001
sg7
F33.329999999999998
sg8
F41.369999999999997
sg9
F40.960000000000001
sg10
F10.039999999999999
sg11
F30.120000000000001
sg12
F2.4100000000000001
sg13
F2.8100000000000001
sg14
F6.4299999999999997
sg15
F50.200000000000003
sg16
F38.549999999999997
sg17
F31.73
sg18
F31.73
sg19
F33.329999999999998
sg20
F31.329999999999998
sg21
F36.950000000000003
sg22
F33.329999999999998
sg23
F32.93
sg24
F100
sg25
F1.6100000000000001
sg26
F30.920000000000002
sg27
F35.740000000000002
sg28
F34.539999999999999
sg29
F35.740000000000002
sg30
F26.91
sg31
F4.4199999999999999
sg32
F22.489999999999998
ssg25
(dp54
g2
F6.4100000000000001
sg4
F64.099999999999994
sg5
F7.6900000000000004
sg6
F10.26
sg7
F11.539999999999999
sg8
F11.539999999999999
sg9
F11.539999999999999
sg10
F66.670000000000002
sg11
F24.359999999999999
sg12
F79.489999999999995
sg13
F3.8500000000000001
sg14
F75.640000000000001
sg15
F17.949999999999999
sg16
F11.539999999999999
sg17
F17.949999999999999
sg18
F7.6900000000000004
sg19
F20.510000000000002
sg20
F10.26
sg21
F11.539999999999999
sg22
F12.82
sg23
F7.6900000000000004
sg24
F5.1299999999999999
sg25
F100
sg26
F12.82
sg27
F19.23
sg28
F11.539999999999999
sg29
F6.4100000000000001
sg30
F12.82
sg31
F70.510000000000005
sg32
F16.670000000000002
ssg26
(dp55
g2
F36.600000000000001
sg4
F3.77
sg5
F37.359999999999999
sg6
F34.719999999999999
sg7
F46.420000000000002
sg8
F43.020000000000003
sg9
F32.829999999999998
sg10
F4.9100000000000001
sg11
F41.130000000000003
sg12
F3.77
sg13
F2.2599999999999998
sg14
F4.5300000000000002
sg15
F30.940000000000001
sg16
F33.210000000000001
sg17
F36.979999999999997
sg18
F44.530000000000001
sg19
F45.280000000000001
sg20
F52.829999999999998
sg21
F32.079999999999998
sg22
F46.789999999999999
sg23
F37.359999999999999
sg24
F28.300000000000001
sg25
F3.77
sg26
F100
sg27
F33.579999999999998
sg28
F35.469999999999999
sg29
F38.490000000000002
sg30
F45.280000000000001
sg31
F7.5499999999999998
sg32
F50.57
ssg27
(dp56
g2
F31.5
sg4
F2.5600000000000001
sg5
F30.399999999999999
sg6
F35.899999999999999
sg7
F36.259999999999998
sg8
F39.93
sg9
F33.329999999999998
sg10
F4.4000000000000004
sg11
F35.899999999999999
sg12
F4.7599999999999998
sg13
F2.5600000000000001
sg14
F7.6900000000000004
sg15
F36.259999999999998
sg16
F37.729999999999997
sg17
F25.640000000000001
sg18
F32.600000000000001
sg19
F37
sg20
F46.149999999999999
sg21
F13.550000000000001
sg22
F30.039999999999999
sg23
F35.899999999999999
sg24
F32.600000000000001
sg25
F5.4900000000000002
sg26
F34.799999999999997
sg27
F100
sg28
F79.489999999999995
sg29
F85.709999999999994
sg30
F32.600000000000001
sg31
F2.2000000000000002
sg32
F39.189999999999998
ssg28
(dp57
g2
F33.090000000000003
sg4
F2.9700000000000002
sg5
F31.969999999999999
sg6
F33.829999999999998
sg7
F42.380000000000003
sg8
F33.460000000000001
sg9
F32.710000000000001
sg10
F4.8300000000000001
sg11
F38.289999999999999
sg12
F4.0899999999999999
sg13
F2.6000000000000001
sg14
F2.23
sg15
F33.460000000000001
sg16
F38.659999999999997
sg17
F38.659999999999997
sg18
F35.32
sg19
F40.149999999999999
sg20
F42.75
sg21
F33.090000000000003
sg22
F37.170000000000002
sg23
F40.890000000000001
sg24
F31.23
sg25
F3.3500000000000001
sg26
F34.939999999999998
sg27
F80.670000000000002
sg28
F100
sg29
F81.040000000000006
sg30
F39.030000000000001
sg31
F5.5800000000000001
sg32
F42.009999999999998
ssg29
(dp58
g2
F36.729999999999997
sg4
F7.6399999999999997
sg5
F30.18
sg6
F34.549999999999997
sg7
F39.640000000000001
sg8
F32.359999999999999
sg9
F33.450000000000003
sg10
F4.3600000000000003
sg11
F38.909999999999997
sg12
F4.7300000000000004
sg13
F2.5499999999999998
sg14
F2.1800000000000002
sg15
F33.450000000000003
sg16
F30.18
sg17
F26.18
sg18
F32.729999999999997
sg19
F33.82
sg20
F38.909999999999997
sg21
F32.359999999999999
sg22
F36.359999999999999
sg23
F39.640000000000001
sg24
F31.27
sg25
F1.8200000000000001
sg26
F37.82
sg27
F85.090000000000003
sg28
F79.269999999999996
sg29
F100
sg30
F37.090000000000003
sg31
F4
sg32
F47.270000000000003
ssg30
(dp59
g2
F22.670000000000002
sg4
F3.2000000000000002
sg5
F28.489999999999998
sg6
F25.870000000000001
sg7
F31.690000000000001
sg8
F27.030000000000001
sg9
F22.969999999999999
sg10
F1.45
sg11
F30.809999999999999
sg12
F3.2000000000000002
sg13
F1.45
sg14
F2.6200000000000001
sg15
F31.399999999999999
sg16
F35.759999999999998
sg17
F26.449999999999999
sg18
F31.98
sg19
F41.57
sg20
F45.060000000000002
sg21
F26.449999999999999
sg22
F34.590000000000003
sg23
F29.649999999999999
sg24
F19.48
sg25
F2.9100000000000001
sg26
F34.009999999999998
sg27
F25.579999999999998
sg28
F30.809999999999999
sg29
F29.649999999999999
sg30
F100
sg31
F5.5199999999999996
sg32
F36.920000000000002
ssg31
(dp60
g2
F20
sg4
F56.359999999999999
sg5
F10.91
sg6
F16.359999999999999
sg7
F17.27
sg8
F16.359999999999999
sg9
F16.359999999999999
sg10
F49.090000000000003
sg11
F10
sg12
F51.82
sg13
F1.8200000000000001
sg14
F46.359999999999999
sg15
F17.27
sg16
F13.640000000000001
sg17
F11.82
sg18
F14.550000000000001
sg19
F6.3600000000000003
sg20
F13.640000000000001
sg21
F10.91
sg22
F11.82
sg23
F11.82
sg24
F10
sg25
F50
sg26
F15.449999999999999
sg27
F5.4500000000000002
sg28
F15.449999999999999
sg29
F10
sg30
F17.27
sg31
F100
sg32
F19.09
ssg32
(dp61
g2
F35.560000000000002
sg4
F4.8099999999999996
sg5
F25.559999999999999
sg6
F29.260000000000002
sg7
F66.299999999999997
sg8
F31.850000000000001
sg9
F29.260000000000002
sg10
F5.1900000000000004
sg11
F45.93
sg12
F8.5199999999999996
sg13
F1.48
sg14
F2.5899999999999999
sg15
F26.300000000000001
sg16
F40.740000000000002
sg17
F32.960000000000001
sg18
F44.439999999999998
sg19
F48.520000000000003
sg20
F53.700000000000003
sg21
F31.109999999999999
sg22
F40
sg23
F47.780000000000001
sg24
F20.739999999999998
sg25
F4.8099999999999996
sg26
F49.630000000000003
sg27
F39.630000000000003
sg28
F42.219999999999999
sg29
F48.149999999999999
sg30
F47.039999999999999
sg31
F7.7800000000000002
sg32
F100
ss.
